; Function Attrs: nounwind uwtable
define dso_local i32 @corrected_commit_dates_enabled(ptr noundef %0) local_unnamed_addr #0 {
  %2 = tail call fastcc i32 @prepare_commit_graph(ptr noundef %0)
  %.not = icmp eq i32 %2, 0
  br i1 %.not, label %13, label %3

3:                                                ; preds = %1
  %4 = getelementptr inbounds nuw i8, ptr %0, i64 16
  %5 = load ptr, ptr %4, align 8, !tbaa !9
  %6 = getelementptr inbounds nuw i8, ptr %5, i64 96
  %7 = load ptr, ptr %6, align 8, !tbaa !123
  %8 = getelementptr inbounds nuw i8, ptr %7, i64 20
  %9 = load i32, ptr %8, align 4, !tbaa !97
  %.not4 = icmp eq i32 %9, 0
  br i1 %.not4, label %13, label %10

10:                                               ; preds = %3
  %11 = getelementptr inbounds nuw i8, ptr %7, i64 84
  %12 = load i32, ptr %11, align 4, !tbaa !87
  br label %13

13:                                               ; preds = %3, %1, %10
  %.0 = phi i32 [ %12, %10 ], [ 0, %1 ], [ 0, %3 ]
  ret i32 %.0
}